target datalayout = "e-m:e-p270:32:32-p271:32:32-p272:64:64-i64:64-i128:128-f80:128-n8:16:32:64-S128"
target triple = "x86_64-pc-linux-gnu"

%struct._wmem_array_t = type { ptr, ptr, i64, i32, i32, i8 }

; Function Attrs: null_pointer_is_valid sspstrong uwtable
define void @wmem_destroy_array(ptr noundef %0) #0 {
  %2 = alloca ptr, align 8
  store ptr %0, ptr %2, align 8
  %3 = load ptr, ptr %2, align 8
  %4 = getelementptr inbounds nuw %struct._wmem_array_t, ptr %3, i32 0, i32 0
  %5 = load ptr, ptr %4, align 8
  %6 = load ptr, ptr %2, align 8
  %7 = getelementptr inbounds nuw %struct._wmem_array_t, ptr %6, i32 0, i32 1
  %8 = load ptr, ptr %7, align 8
  call void @wmem_free(ptr noundef %5, ptr noundef %8)
  %9 = load ptr, ptr %2, align 8
  %10 = getelementptr inbounds nuw %struct._wmem_array_t, ptr %9, i32 0, i32 0
  %11 = load ptr, ptr %10, align 8
  %12 = load ptr, ptr %2, align 8
  call void @wmem_free(ptr noundef %11, ptr noundef %12)
  ret void
}