; Function Attrs: null_pointer_is_valid sspstrong uwtable
define void @wmem_destroy_array(ptr noundef %0) local_unnamed_addr #0 {
  %2 = load ptr, ptr %0, align 8
  %3 = getelementptr inbounds nuw i8, ptr %0, i64 8
  %4 = load ptr, ptr %3, align 8
  tail call void @wmem_free(ptr noundef %2, ptr noundef %4)
  %5 = load ptr, ptr %0, align 8
  tail call void @wmem_free(ptr noundef %5, ptr noundef %0)
  ret void
}